target datalayout = "e-m:e-p270:32:32-p271:32:32-p272:64:64-i64:64-i128:128-f80:128-n8:16:32:64-S128"
target triple = "x86_64-pc-linux-gnu"

%"class.duckdb_re2::Regexp" = type { i8, i8, i16, i16, i16, %union.anon, ptr, %union.anon.0 }
%union.anon = type { ptr }
%union.anon.0 = type { %struct.anon.1 }
%struct.anon.1 = type { i32, ptr }
%struct.anon.2 = type { i32, ptr }

; Function Attrs: mustprogress uwtable
define hidden void @_ZN10duckdb_re26Regexp15AddRuneToStringEi(ptr noundef nonnull align 8 dereferenceable(40) %0, i32 noundef %1) #4 align 2 {
  %3 = alloca ptr, align 8
  %4 = alloca i32, align 4
  %5 = alloca ptr, align 8
  %6 = alloca i32, align 4
  store ptr %0, ptr %3, align 8, !tbaa !3
  store i32 %1, ptr %4, align 4, !tbaa !29
  %7 = load ptr, ptr %3, align 8
  %8 = getelementptr inbounds nuw %"class.duckdb_re2::Regexp", ptr %7, i32 0, i32 7
  %9 = getelementptr inbounds nuw %struct.anon.2, ptr %8, i32 0, i32 0
  %10 = load i32, ptr %9, align 8, !tbaa !20
  %11 = icmp eq i32 %10, 0
  br i1 %11, label %12, label %16

12:                                               ; preds = %2
  %13 = call noalias noundef nonnull ptr @_Znam(i64 noundef 32) #22
  %14 = getelementptr inbounds nuw %"class.duckdb_re2::Regexp", ptr %7, i32 0, i32 7
  %15 = getelementptr inbounds nuw %struct.anon.2, ptr %14, i32 0, i32 1
  store ptr %13, ptr %15, align 8, !tbaa !20
  br label %75

16:                                               ; preds = %2
  %17 = getelementptr inbounds nuw %"class.duckdb_re2::Regexp", ptr %7, i32 0, i32 7
  %18 = getelementptr inbounds nuw %struct.anon.2, ptr %17, i32 0, i32 0
  %19 = load i32, ptr %18, align 8, !tbaa !20
  %20 = icmp sge i32 %19, 8
  br i1 %20, label %21, label %74

21:                                               ; preds = %16
  %22 = getelementptr inbounds nuw %"class.duckdb_re2::Regexp", ptr %7, i32 0, i32 7
  %23 = getelementptr inbounds nuw %struct.anon.2, ptr %22, i32 0, i32 0
  %24 = load i32, ptr %23, align 8, !tbaa !20
  %25 = getelementptr inbounds nuw %"class.duckdb_re2::Regexp", ptr %7, i32 0, i32 7
  %26 = getelementptr inbounds nuw %struct.anon.2, ptr %25, i32 0, i32 0
  %27 = load i32, ptr %26, align 8, !tbaa !20
  %28 = sub nsw i32 %27, 1
  %29 = and i32 %24, %28
  %30 = icmp eq i32 %29, 0
  br i1 %30, label %31, label %74

31:                                               ; preds = %21
  call void @llvm.lifetime.start.p0(i64 8, ptr %5) #18
  %32 = getelementptr inbounds nuw %"class.duckdb_re2::Regexp", ptr %7, i32 0, i32 7
  %33 = getelementptr inbounds nuw %struct.anon.2, ptr %32, i32 0, i32 1
  %34 = load ptr, ptr %33, align 8, !tbaa !20
  store ptr %34, ptr %5, align 8, !tbaa !74
  %35 = getelementptr inbounds nuw %"class.duckdb_re2::Regexp", ptr %7, i32 0, i32 7
  %36 = getelementptr inbounds nuw %struct.anon.2, ptr %35, i32 0, i32 0
  %37 = load i32, ptr %36, align 8, !tbaa !20
  %38 = mul nsw i32 %37, 2
  %39 = sext i32 %38 to i64
  %40 = call { i64, i1 } @llvm.umul.with.overflow.i64(i64 %39, i64 4)
  %41 = extractvalue { i64, i1 } %40, 1
  %42 = extractvalue { i64, i1 } %40, 0
  %43 = select i1 %41, i64 -1, i64 %42
  %44 = call noalias noundef nonnull ptr @_Znam(i64 noundef %43) #22
  %45 = getelementptr inbounds nuw %"class.duckdb_re2::Regexp", ptr %7, i32 0, i32 7
  %46 = getelementptr inbounds nuw %struct.anon.2, ptr %45, i32 0, i32 1
  store ptr %44, ptr %46, align 8, !tbaa !20
  call void @llvm.lifetime.start.p0(i64 4, ptr %6) #18
  store i32 0, ptr %6, align 4, !tbaa !29
  br label %47

47:                                               ; preds = %66, %31
  %48 = load i32, ptr %6, align 4, !tbaa !29
  %49 = getelementptr inbounds nuw %"class.duckdb_re2::Regexp", ptr %7, i32 0, i32 7
  %50 = getelementptr inbounds nuw %struct.anon.2, ptr %49, i32 0, i32 0
  %51 = load i32, ptr %50, align 8, !tbaa !20
  %52 = icmp slt i32 %48, %51
  br i1 %52, label %54, label %53

53:                                               ; preds = %47
  call void @llvm.lifetime.end.p0(i64 4, ptr %6) #18
  br label %69

54:                                               ; preds = %47
  %55 = load ptr, ptr %5, align 8, !tbaa !74
  %56 = load i32, ptr %6, align 4, !tbaa !29
  %57 = sext i32 %56 to i64
  %58 = getelementptr inbounds i32, ptr %55, i64 %57
  %59 = load i32, ptr %58, align 4, !tbaa !29
  %60 = getelementptr inbounds nuw %"class.duckdb_re2::Regexp", ptr %7, i32 0, i32 7
  %61 = getelementptr inbounds nuw %struct.anon.2, ptr %60, i32 0, i32 1
  %62 = load ptr, ptr %61, align 8, !tbaa !20
  %63 = load i32, ptr %6, align 4, !tbaa !29
  %64 = sext i32 %63 to i64
  %65 = getelementptr inbounds i32, ptr %62, i64 %64
  store i32 %59, ptr %65, align 4, !tbaa !29
  br label %66

66:                                               ; preds = %54
  %67 = load i32, ptr %6, align 4, !tbaa !29
  %68 = add nsw i32 %67, 1
  store i32 %68, ptr %6, align 4, !tbaa !29
  br label %47, !llvm.loop !76

69:                                               ; preds = %53
  %70 = load ptr, ptr %5, align 8, !tbaa !74
  %71 = icmp eq ptr %70, null
  br i1 %71, label %73, label %72

72:                                               ; preds = %69
  call void @_ZdaPv(ptr noundef %70) #19
  br label %73

73:                                               ; preds = %72, %69
  call void @llvm.lifetime.end.p0(i64 8, ptr %5) #18
  br label %74

74:                                               ; preds = %73, %21, %16
  br label %75

75:                                               ; preds = %74, %12
  %76 = load i32, ptr %4, align 4, !tbaa !29
  %77 = getelementptr inbounds nuw %"class.duckdb_re2::Regexp", ptr %7, i32 0, i32 7
  %78 = getelementptr inbounds nuw %struct.anon.2, ptr %77, i32 0, i32 1
  %79 = load ptr, ptr %78, align 8, !tbaa !20
  %80 = getelementptr inbounds nuw %"class.duckdb_re2::Regexp", ptr %7, i32 0, i32 7
  %81 = getelementptr inbounds nuw %struct.anon.2, ptr %80, i32 0, i32 0
  %82 = load i32, ptr %81, align 8, !tbaa !20
  %83 = add nsw i32 %82, 1
  store i32 %83, ptr %81, align 8, !tbaa !20
  %84 = sext i32 %82 to i64
  %85 = getelementptr inbounds i32, ptr %79, i64 %84
  store i32 %76, ptr %85, align 4, !tbaa !29
  ret void
}