; Function Attrs: mustprogress uwtable
define hidden void @_ZN10duckdb_re26Regexp15AddRuneToStringEi(ptr noundef nonnull align 8 captures(none) dereferenceable(40) %0, i32 noundef %1) local_unnamed_addr #7 align 2 {
  %3 = getelementptr inbounds nuw i8, ptr %0, i64 24
  %4 = load i32, ptr %3, align 8, !tbaa !32
  %5 = icmp eq i32 %4, 0
  br i1 %5, label %6, label %9

6:                                                ; preds = %2
  %7 = tail call noalias noundef nonnull dereferenceable(32) ptr @_Znam(i64 noundef 32) #31
  %8 = getelementptr inbounds nuw i8, ptr %0, i64 32
  store ptr %7, ptr %8, align 8, !tbaa !32
  br label %26

9:                                                ; preds = %2
  %10 = icmp sgt i32 %4, 7
  %11 = tail call range(i32 1, 32) i32 @llvm.ctpop.i32(i32 %4)
  %12 = icmp samesign ult i32 %11, 2
  %or.cond = select i1 %10, i1 %12, i1 false
  br i1 %or.cond, label %.lr.ph.preheader, label %26

.lr.ph.preheader:                                 ; preds = %9
  %13 = getelementptr inbounds nuw i8, ptr %0, i64 32
  %14 = load ptr, ptr %13, align 8, !tbaa !32
  %15 = shl nuw nsw i32 %4, 1
  %16 = zext nneg i32 %15 to i64
  %17 = shl nuw nsw i64 %16, 2
  %18 = tail call noalias noundef nonnull ptr @_Znam(i64 noundef %17) #31
  store ptr %18, ptr %13, align 8, !tbaa !32
  br label %.lr.ph

.lr.ph:                                           ; preds = %.lr.ph.preheader, %.lr.ph
  %indvars.iv = phi i64 [ 0, %.lr.ph.preheader ], [ %indvars.iv.next, %.lr.ph ]
  %19 = getelementptr inbounds nuw i32, ptr %14, i64 %indvars.iv
  %20 = load i32, ptr %19, align 4, !tbaa !42
  %21 = load ptr, ptr %13, align 8, !tbaa !32
  %22 = getelementptr inbounds nuw i32, ptr %21, i64 %indvars.iv
  store i32 %20, ptr %22, align 4, !tbaa !42
  %indvars.iv.next = add nuw nsw i64 %indvars.iv, 1
  %23 = load i32, ptr %3, align 8, !tbaa !32
  %24 = sext i32 %23 to i64
  %25 = icmp slt i64 %indvars.iv.next, %24
  br i1 %25, label %.lr.ph, label %._crit_edge, !llvm.loop !55

._crit_edge:                                      ; preds = %.lr.ph
  tail call void @_ZdaPv(ptr noundef nonnull %14) #28
  %.pre = load i32, ptr %3, align 8, !tbaa !32
  br label %26

26:                                               ; preds = %._crit_edge, %9, %6
  %27 = phi i32 [ %.pre, %._crit_edge ], [ %4, %9 ], [ 0, %6 ]
  %28 = getelementptr inbounds nuw i8, ptr %0, i64 32
  %29 = load ptr, ptr %28, align 8, !tbaa !32
  %30 = add nsw i32 %27, 1
  store i32 %30, ptr %3, align 8, !tbaa !32
  %31 = sext i32 %27 to i64
  %32 = getelementptr inbounds i32, ptr %29, i64 %31
  store i32 %1, ptr %32, align 4, !tbaa !42
  ret void
}